target datalayout = "e-m:e-p270:32:32-p271:32:32-p272:64:64-i64:64-i128:128-f80:128-n8:16:32:64-S128"
target triple = "x86_64-unknown-linux-gnu"

%"class.icu_75::UMutex" = type { [40 x i8], %"struct.std::atomic", ptr }
%"struct.std::atomic" = type { %"struct.std::__atomic_base" }
%"struct.std::__atomic_base" = type { ptr }
%"class.icu_75::SimpleTimeZone" = type { %"class.icu_75::BasicTimeZone", i8, i8, i8, i32, i32, i32, i8, i8, i8, i32, i32, i32, i8, i32, i32, i32, i8, ptr, ptr, ptr, ptr }
%"class.icu_75::BasicTimeZone" = type { %"class.icu_75::TimeZone" }
%"class.icu_75::TimeZone" = type { %"class.icu_75::UObject", %"class.icu_75::UnicodeString" }
%"class.icu_75::UObject" = type { ptr }
%"class.icu_75::UnicodeString" = type { %"class.icu_75::Replaceable", %"union.icu_75::UnicodeString::StackBufferOrFields" }
%"class.icu_75::Replaceable" = type { %"class.icu_75::UObject" }
%"union.icu_75::UnicodeString::StackBufferOrFields" = type { %struct.anon.0, [32 x i8] }
%struct.anon.0 = type { i16, i32, i32, ptr }

@_ZZNK6icu_7514SimpleTimeZone20checkTransitionRulesER10UErrorCodeE5gLock = internal global %"class.icu_75::UMutex" zeroinitializer, align 8

; Function Attrs: mustprogress nounwind uwtable
define internal noundef signext i8 @_ZL9U_FAILURE10UErrorCode(i32 noundef %code) #0 {
entry:
  %code.addr = alloca i32, align 4
  store i32 %code, ptr %code.addr, align 4
  %0 = load i32, ptr %code.addr, align 4
  %cmp = icmp sgt i32 %0, 0
  %conv = zext i1 %cmp to i8
  ret i8 %conv
}

; Function Attrs: mustprogress uwtable
define void @_ZNK6icu_7514SimpleTimeZone20checkTransitionRulesER10UErrorCode(ptr noundef nonnull align 8 dereferenceable(160) %this, ptr noundef nonnull align 4 dereferenceable(4) %status) #1 align 2 {
entry:
  %this.addr = alloca ptr, align 8
  %status.addr = alloca ptr, align 8
  %ncThis = alloca ptr, align 8
  store ptr %this, ptr %this.addr, align 8
  store ptr %status, ptr %status.addr, align 8
  %this1 = load ptr, ptr %this.addr, align 8
  %0 = load ptr, ptr %status.addr, align 8
  %1 = load i32, ptr %0, align 4
  %call = call noundef signext i8 @_ZL9U_FAILURE10UErrorCode(i32 noundef %1)
  %tobool = icmp ne i8 %call, 0
  br i1 %tobool, label %if.then, label %if.end

if.then:                                          ; preds = %entry
  br label %return

if.end:                                           ; preds = %entry
  call void @umtx_lock_75(ptr noundef @_ZZNK6icu_7514SimpleTimeZone20checkTransitionRulesER10UErrorCodeE5gLock)
  %transitionRulesInitialized = getelementptr inbounds %"class.icu_75::SimpleTimeZone", ptr %this1, i32 0, i32 17
  %2 = load i8, ptr %transitionRulesInitialized, align 8
  %tobool2 = icmp ne i8 %2, 0
  br i1 %tobool2, label %if.end4, label %if.then3

if.then3:                                         ; preds = %if.end
  store ptr %this1, ptr %ncThis, align 8
  %3 = load ptr, ptr %ncThis, align 8
  %4 = load ptr, ptr %status.addr, align 8
  call void @_ZN6icu_7514SimpleTimeZone19initTransitionRulesER10UErrorCode(ptr noundef nonnull align 8 dereferenceable(160) %3, ptr noundef nonnull align 4 dereferenceable(4) %4)
  br label %if.end4

if.end4:                                          ; preds = %if.then3, %if.end
  call void @umtx_unlock_75(ptr noundef @_ZZNK6icu_7514SimpleTimeZone20checkTransitionRulesER10UErrorCodeE5gLock)
  br label %return

return:                                           ; preds = %if.end4, %if.then
  ret void
}

; Function Attrs: mustprogress uwtable
define noundef signext i8 @_ZNK6icu_7514SimpleTimeZone21getPreviousTransitionEdaRNS_18TimeZoneTransitionE(ptr noundef nonnull align 8 dereferenceable(160) %this, double noundef %base, i8 noundef signext %inclusive, ptr noundef nonnull align 8 dereferenceable(32) %result) unnamed_addr #1 align 2 {
entry:
  %retval = alloca i8, align 1
  %this.addr = alloca ptr, align 8
  %base.addr = alloca double, align 8
  %inclusive.addr = alloca i8, align 1
  %result.addr = alloca ptr, align 8
  %status = alloca i32, align 4
  %firstTransitionTime = alloca double, align 8
  %stdDate = alloca double, align 8
  %dstDate = alloca double, align 8
  %stdAvail = alloca i8, align 1
  %dstAvail = alloca i8, align 1
  store ptr %this, ptr %this.addr, align 8
  store double %base, ptr %base.addr, align 8
  store i8 %inclusive, ptr %inclusive.addr, align 1
  store ptr %result, ptr %result.addr, align 8
  %this1 = load ptr, ptr %this.addr, align 8
  %useDaylight = getelementptr inbounds %"class.icu_75::SimpleTimeZone", ptr %this1, i32 0, i32 13
  %0 = load i8, ptr %useDaylight, align 8
  %tobool = icmp ne i8 %0, 0
  br i1 %tobool, label %if.end, label %if.then

if.then:                                          ; preds = %entry
  store i8 0, ptr %retval, align 1
  br label %return

if.end:                                           ; preds = %entry
  store i32 0, ptr %status, align 4
  call void @_ZNK6icu_7514SimpleTimeZone20checkTransitionRulesER10UErrorCode(ptr noundef nonnull align 8 dereferenceable(160) %this1, ptr noundef nonnull align 4 dereferenceable(4) %status)
  %1 = load i32, ptr %status, align 4
  %call = call noundef signext i8 @_ZL9U_FAILURE10UErrorCode(i32 noundef %1)
  %tobool2 = icmp ne i8 %call, 0
  br i1 %tobool2, label %if.then3, label %if.end4

if.then3:                                         ; preds = %if.end
  store i8 0, ptr %retval, align 1
  br label %return

if.end4:                                          ; preds = %if.end
  %firstTransition = getelementptr inbounds %"class.icu_75::SimpleTimeZone", ptr %this1, i32 0, i32 19
  %2 = load ptr, ptr %firstTransition, align 8
  %call5 = call noundef double @_ZNK6icu_7518TimeZoneTransition7getTimeEv(ptr noundef nonnull align 8 dereferenceable(32) %2)
  store double %call5, ptr %firstTransitionTime, align 8
  %3 = load double, ptr %base.addr, align 8
  %4 = load double, ptr %firstTransitionTime, align 8
  %cmp = fcmp olt double %3, %4
  br i1 %cmp, label %if.then8, label %lor.lhs.false

lor.lhs.false:                                    ; preds = %if.end4
  %5 = load i8, ptr %inclusive.addr, align 1
  %tobool6 = icmp ne i8 %5, 0
  br i1 %tobool6, label %if.end9, label %land.lhs.true

land.lhs.true:                                    ; preds = %lor.lhs.false
  %6 = load double, ptr %base.addr, align 8
  %7 = load double, ptr %firstTransitionTime, align 8
  %cmp7 = fcmp oeq double %6, %7
  br i1 %cmp7, label %if.then8, label %if.end9

if.then8:                                         ; preds = %land.lhs.true, %if.end4
  store i8 0, ptr %retval, align 1
  br label %return

if.end9:                                          ; preds = %land.lhs.true, %lor.lhs.false
  %stdRule = getelementptr inbounds %"class.icu_75::SimpleTimeZone", ptr %this1, i32 0, i32 20
  %8 = load ptr, ptr %stdRule, align 8
  %9 = load double, ptr %base.addr, align 8
  %dstRule = getelementptr inbounds %"class.icu_75::SimpleTimeZone", ptr %this1, i32 0, i32 21
  %10 = load ptr, ptr %dstRule, align 8
  %call10 = call noundef i32 @_ZNK6icu_7512TimeZoneRule12getRawOffsetEv(ptr noundef nonnull align 8 dereferenceable(80) %10)
  %dstRule11 = getelementptr inbounds %"class.icu_75::SimpleTimeZone", ptr %this1, i32 0, i32 21
  %11 = load ptr, ptr %dstRule11, align 8
  %call12 = call noundef i32 @_ZNK6icu_7512TimeZoneRule13getDSTSavingsEv(ptr noundef nonnull align 8 dereferenceable(80) %11)
  %12 = load i8, ptr %inclusive.addr, align 1
  %vtable = load ptr, ptr %8, align 8
  %vfn = getelementptr inbounds ptr, ptr %vtable, i64 10
  %13 = load ptr, ptr %vfn, align 8
  %call13 = call noundef signext i8 %13(ptr noundef nonnull align 8 dereferenceable(96) %8, double noundef %9, i32 noundef %call10, i32 noundef %call12, i8 noundef signext %12, ptr noundef nonnull align 8 dereferenceable(8) %stdDate)
  store i8 %call13, ptr %stdAvail, align 1
  %dstRule14 = getelementptr inbounds %"class.icu_75::SimpleTimeZone", ptr %this1, i32 0, i32 21
  %14 = load ptr, ptr %dstRule14, align 8
  %15 = load double, ptr %base.addr, align 8
  %stdRule15 = getelementptr inbounds %"class.icu_75::SimpleTimeZone", ptr %this1, i32 0, i32 20
  %16 = load ptr, ptr %stdRule15, align 8
  %call16 = call noundef i32 @_ZNK6icu_7512TimeZoneRule12getRawOffsetEv(ptr noundef nonnull align 8 dereferenceable(80) %16)
  %stdRule17 = getelementptr inbounds %"class.icu_75::SimpleTimeZone", ptr %this1, i32 0, i32 20
  %17 = load ptr, ptr %stdRule17, align 8
  %call18 = call noundef i32 @_ZNK6icu_7512TimeZoneRule13getDSTSavingsEv(ptr noundef nonnull align 8 dereferenceable(80) %17)
  %18 = load i8, ptr %inclusive.addr, align 1
  %vtable19 = load ptr, ptr %14, align 8
  %vfn20 = getelementptr inbounds ptr, ptr %vtable19, i64 10
  %19 = load ptr, ptr %vfn20, align 8
  %call21 = call noundef signext i8 %19(ptr noundef nonnull align 8 dereferenceable(96) %14, double noundef %15, i32 noundef %call16, i32 noundef %call18, i8 noundef signext %18, ptr noundef nonnull align 8 dereferenceable(8) %dstDate)
  store i8 %call21, ptr %dstAvail, align 1
  %20 = load i8, ptr %stdAvail, align 1
  %tobool22 = icmp ne i8 %20, 0
  br i1 %tobool22, label %land.lhs.true23, label %if.end30

land.lhs.true23:                                  ; preds = %if.end9
  %21 = load i8, ptr %dstAvail, align 1
  %tobool24 = icmp ne i8 %21, 0
  br i1 %tobool24, label %lor.lhs.false25, label %if.then27

lor.lhs.false25:                                  ; preds = %land.lhs.true23
  %22 = load double, ptr %stdDate, align 8
  %23 = load double, ptr %dstDate, align 8
  %cmp26 = fcmp ogt double %22, %23
  br i1 %cmp26, label %if.then27, label %if.end30

if.then27:                                        ; preds = %lor.lhs.false25, %land.lhs.true23
  %24 = load ptr, ptr %result.addr, align 8
  %25 = load double, ptr %stdDate, align 8
  call void @_ZN6icu_7518TimeZoneTransition7setTimeEd(ptr noundef nonnull align 8 dereferenceable(32) %24, double noundef %25)
  %26 = load ptr, ptr %result.addr, align 8
  %dstRule28 = getelementptr inbounds %"class.icu_75::SimpleTimeZone", ptr %this1, i32 0, i32 21
  %27 = load ptr, ptr %dstRule28, align 8
  call void @_ZN6icu_7518TimeZoneTransition7setFromERKNS_12TimeZoneRuleE(ptr noundef nonnull align 8 dereferenceable(32) %26, ptr noundef nonnull align 8 dereferenceable(80) %27)
  %28 = load ptr, ptr %result.addr, align 8
  %stdRule29 = getelementptr inbounds %"class.icu_75::SimpleTimeZone", ptr %this1, i32 0, i32 20
  %29 = load ptr, ptr %stdRule29, align 8
  call void @_ZN6icu_7518TimeZoneTransition5setToERKNS_12TimeZoneRuleE(ptr noundef nonnull align 8 dereferenceable(32) %28, ptr noundef nonnull align 8 dereferenceable(80) %29)
  store i8 1, ptr %retval, align 1
  br label %return

if.end30:                                         ; preds = %lor.lhs.false25, %if.end9
  %30 = load i8, ptr %dstAvail, align 1
  %tobool31 = icmp ne i8 %30, 0
  br i1 %tobool31, label %land.lhs.true32, label %if.end39

land.lhs.true32:                                  ; preds = %if.end30
  %31 = load i8, ptr %stdAvail, align 1
  %tobool33 = icmp ne i8 %31, 0
  br i1 %tobool33, label %lor.lhs.false34, label %if.then36

lor.lhs.false34:                                  ; preds = %land.lhs.true32
  %32 = load double, ptr %dstDate, align 8
  %33 = load double, ptr %stdDate, align 8
  %cmp35 = fcmp ogt double %32, %33
  br i1 %cmp35, label %if.then36, label %if.end39

if.then36:                                        ; preds = %lor.lhs.false34, %land.lhs.true32
  %34 = load ptr, ptr %result.addr, align 8
  %35 = load double, ptr %dstDate, align 8
  call void @_ZN6icu_7518TimeZoneTransition7setTimeEd(ptr noundef nonnull align 8 dereferenceable(32) %34, double noundef %35)
  %36 = load ptr, ptr %result.addr, align 8
  %stdRule37 = getelementptr inbounds %"class.icu_75::SimpleTimeZone", ptr %this1, i32 0, i32 20
  %37 = load ptr, ptr %stdRule37, align 8
  call void @_ZN6icu_7518TimeZoneTransition7setFromERKNS_12TimeZoneRuleE(ptr noundef nonnull align 8 dereferenceable(32) %36, ptr noundef nonnull align 8 dereferenceable(80) %37)
  %38 = load ptr, ptr %result.addr, align 8
  %dstRule38 = getelementptr inbounds %"class.icu_75::SimpleTimeZone", ptr %this1, i32 0, i32 21
  %39 = load ptr, ptr %dstRule38, align 8
  call void @_ZN6icu_7518TimeZoneTransition5setToERKNS_12TimeZoneRuleE(ptr noundef nonnull align 8 dereferenceable(32) %38, ptr noundef nonnull align 8 dereferenceable(80) %39)
  store i8 1, ptr %retval, align 1
  br label %return

if.end39:                                         ; preds = %lor.lhs.false34, %if.end30
  store i8 0, ptr %retval, align 1
  br label %return

return:                                           ; preds = %if.end39, %if.then36, %if.then27, %if.then8, %if.then3, %if.then
  %40 = load i8, ptr %retval, align 1
  ret i8 %40
}