; Function Attrs: mustprogress uwtable
define noundef signext i8 @_ZNK6icu_7514SimpleTimeZone21getPreviousTransitionEdaRNS_18TimeZoneTransitionE(ptr noundef nonnull align 8 dereferenceable(160) %this, double noundef %base, i8 noundef signext %inclusive, ptr noundef nonnull align 8 dereferenceable(32) %result) unnamed_addr #1 align 2 {
entry:
  %status = alloca i32, align 4
  %stdDate = alloca double, align 8
  %dstDate = alloca double, align 8
  %useDaylight = getelementptr inbounds i8, ptr %this, i64 104
  %0 = load i8, ptr %useDaylight, align 8
  %tobool.not = icmp eq i8 %0, 0
  br i1 %tobool.not, label %return, label %if.end.i

if.end.i:                                         ; preds = %entry
  store i32 0, ptr %status, align 4
  tail call void @umtx_lock_75(ptr noundef nonnull @_ZZNK6icu_7514SimpleTimeZone20checkTransitionRulesER10UErrorCodeE5gLock)
  %transitionRulesInitialized.i = getelementptr inbounds i8, ptr %this, i64 120
  %1 = load i8, ptr %transitionRulesInitialized.i, align 8
  %tobool2.not.i = icmp eq i8 %1, 0
  br i1 %tobool2.not.i, label %_ZNK6icu_7514SimpleTimeZone20checkTransitionRulesER10UErrorCode.exit, label %_ZNK6icu_7514SimpleTimeZone20checkTransitionRulesER10UErrorCode.exit.thread

_ZNK6icu_7514SimpleTimeZone20checkTransitionRulesER10UErrorCode.exit.thread: ; preds = %if.end.i
  tail call void @umtx_unlock_75(ptr noundef nonnull @_ZZNK6icu_7514SimpleTimeZone20checkTransitionRulesER10UErrorCodeE5gLock)
  br label %if.end4

_ZNK6icu_7514SimpleTimeZone20checkTransitionRulesER10UErrorCode.exit: ; preds = %if.end.i
  call void @_ZN6icu_7514SimpleTimeZone19initTransitionRulesER10UErrorCode(ptr noundef nonnull align 8 dereferenceable(160) %this, ptr noundef nonnull align 4 dereferenceable(4) %status)
  %.pre = load i32, ptr %status, align 4
  %2 = icmp slt i32 %.pre, 1
  tail call void @umtx_unlock_75(ptr noundef nonnull @_ZZNK6icu_7514SimpleTimeZone20checkTransitionRulesER10UErrorCodeE5gLock)
  br i1 %2, label %if.end4, label %return

if.end4:                                          ; preds = %_ZNK6icu_7514SimpleTimeZone20checkTransitionRulesER10UErrorCode.exit.thread, %_ZNK6icu_7514SimpleTimeZone20checkTransitionRulesER10UErrorCode.exit
  %firstTransition = getelementptr inbounds i8, ptr %this, i64 136
  %3 = load ptr, ptr %firstTransition, align 8
  %call5 = tail call noundef double @_ZNK6icu_7518TimeZoneTransition7getTimeEv(ptr noundef nonnull align 8 dereferenceable(32) %3)
  %cmp = fcmp ogt double %call5, %base
  br i1 %cmp, label %return, label %lor.lhs.false

lor.lhs.false:                                    ; preds = %if.end4
  %tobool6.not = icmp eq i8 %inclusive, 0
  %cmp7 = fcmp oeq double %call5, %base
  %or.cond = and i1 %tobool6.not, %cmp7
  br i1 %or.cond, label %return, label %if.end9

if.end9:                                          ; preds = %lor.lhs.false
  %stdRule = getelementptr inbounds i8, ptr %this, i64 144
  %4 = load ptr, ptr %stdRule, align 8
  %dstRule = getelementptr inbounds i8, ptr %this, i64 152
  %5 = load ptr, ptr %dstRule, align 8
  %call10 = tail call noundef i32 @_ZNK6icu_7512TimeZoneRule12getRawOffsetEv(ptr noundef nonnull align 8 dereferenceable(80) %5)
  %6 = load ptr, ptr %dstRule, align 8
  %call12 = tail call noundef i32 @_ZNK6icu_7512TimeZoneRule13getDSTSavingsEv(ptr noundef nonnull align 8 dereferenceable(80) %6)
  %vtable = load ptr, ptr %4, align 8
  %vfn = getelementptr inbounds i8, ptr %vtable, i64 80
  %7 = load ptr, ptr %vfn, align 8
  %call13 = call noundef signext i8 %7(ptr noundef nonnull align 8 dereferenceable(96) %4, double noundef %base, i32 noundef %call10, i32 noundef %call12, i8 noundef signext %inclusive, ptr noundef nonnull align 8 dereferenceable(8) %stdDate)
  %8 = load ptr, ptr %dstRule, align 8
  %9 = load ptr, ptr %stdRule, align 8
  %call16 = call noundef i32 @_ZNK6icu_7512TimeZoneRule12getRawOffsetEv(ptr noundef nonnull align 8 dereferenceable(80) %9)
  %10 = load ptr, ptr %stdRule, align 8
  %call18 = call noundef i32 @_ZNK6icu_7512TimeZoneRule13getDSTSavingsEv(ptr noundef nonnull align 8 dereferenceable(80) %10)
  %vtable19 = load ptr, ptr %8, align 8
  %vfn20 = getelementptr inbounds i8, ptr %vtable19, i64 80
  %11 = load ptr, ptr %vfn20, align 8
  %call21 = call noundef signext i8 %11(ptr noundef nonnull align 8 dereferenceable(96) %8, double noundef %base, i32 noundef %call16, i32 noundef %call18, i8 noundef signext %inclusive, ptr noundef nonnull align 8 dereferenceable(8) %dstDate)
  %tobool22.not = icmp eq i8 %call13, 0
  %tobool31.not = icmp eq i8 %call21, 0
  br i1 %tobool22.not, label %if.end30, label %land.lhs.true23

land.lhs.true23:                                  ; preds = %if.end9
  %.pre15 = load double, ptr %stdDate, align 8
  br i1 %tobool31.not, label %return.sink.split, label %lor.lhs.false25

lor.lhs.false25:                                  ; preds = %land.lhs.true23
  %12 = load double, ptr %dstDate, align 8
  %cmp26 = fcmp ogt double %.pre15, %12
  br i1 %cmp26, label %return.sink.split, label %lor.lhs.false34

if.end30:                                         ; preds = %if.end9
  br i1 %tobool31.not, label %return, label %if.end30.if.then36_crit_edge

if.end30.if.then36_crit_edge:                     ; preds = %if.end30
  %.pre16 = load double, ptr %dstDate, align 8
  br label %return.sink.split

lor.lhs.false34:                                  ; preds = %lor.lhs.false25
  %cmp35 = fcmp ogt double %12, %.pre15
  br i1 %cmp35, label %return.sink.split, label %return

return.sink.split:                                ; preds = %lor.lhs.false34, %if.end30.if.then36_crit_edge, %land.lhs.true23, %lor.lhs.false25
  %.sink = phi double [ %.pre15, %lor.lhs.false25 ], [ %.pre15, %land.lhs.true23 ], [ %.pre16, %if.end30.if.then36_crit_edge ], [ %12, %lor.lhs.false34 ]
  %stdRule.sink = phi ptr [ %dstRule, %lor.lhs.false25 ], [ %dstRule, %land.lhs.true23 ], [ %stdRule, %if.end30.if.then36_crit_edge ], [ %stdRule, %lor.lhs.false34 ]
  %dstRule.sink = phi ptr [ %stdRule, %lor.lhs.false25 ], [ %stdRule, %land.lhs.true23 ], [ %dstRule, %if.end30.if.then36_crit_edge ], [ %dstRule, %lor.lhs.false34 ]
  call void @_ZN6icu_7518TimeZoneTransition7setTimeEd(ptr noundef nonnull align 8 dereferenceable(32) %result, double noundef %.sink)
  %13 = load ptr, ptr %stdRule.sink, align 8
  call void @_ZN6icu_7518TimeZoneTransition7setFromERKNS_12TimeZoneRuleE(ptr noundef nonnull align 8 dereferenceable(32) %result, ptr noundef nonnull align 8 dereferenceable(80) %13)
  %14 = load ptr, ptr %dstRule.sink, align 8
  call void @_ZN6icu_7518TimeZoneTransition5setToERKNS_12TimeZoneRuleE(ptr noundef nonnull align 8 dereferenceable(32) %result, ptr noundef nonnull align 8 dereferenceable(80) %14)
  br label %return

return:                                           ; preds = %return.sink.split, %if.end30, %lor.lhs.false34, %if.end4, %lor.lhs.false, %_ZNK6icu_7514SimpleTimeZone20checkTransitionRulesER10UErrorCode.exit, %entry
  %retval.0 = phi i8 [ 0, %entry ], [ 0, %_ZNK6icu_7514SimpleTimeZone20checkTransitionRulesER10UErrorCode.exit ], [ 0, %lor.lhs.false ], [ 0, %if.end4 ], [ 0, %lor.lhs.false34 ], [ 0, %if.end30 ], [ 1, %return.sink.split ]
  ret i8 %retval.0
}